target datalayout = "e-m:e-p270:32:32-p271:32:32-p272:64:64-i64:64-i128:128-f80:128-n8:16:32:64-S128"
target triple = "x86_64-pc-linux-gnu"

%struct._conversation_item_t = type { ptr, %struct._address, %struct._address, i32, i32, i32, i32, i64, i64, i64, i64, i64, i64, i64, i64, %struct.nstime_t, %struct.nstime_t, %struct.nstime_t, i8, %struct._conversation_extension_tcp_t }
%struct._address = type { i32, i32, ptr, ptr }
%struct.nstime_t = type { i64, i32 }
%struct._conversation_extension_tcp_t = type { i64 }

; Function Attrs: alwaysinline nounwind
define internal ptr @memcpy.inline(ptr noalias %0, ptr noalias %1, i64 %2) #8 {
  %4 = alloca ptr, align 8
  %5 = alloca ptr, align 8
  %6 = alloca i64, align 8
  store ptr %0, ptr %4, align 8
  store ptr %1, ptr %5, align 8
  store i64 %2, ptr %6, align 8
  %7 = load ptr, ptr %4, align 8
  %8 = load ptr, ptr %5, align 8
  %9 = load i64, ptr %6, align 8
  %10 = load ptr, ptr %4, align 8
  %11 = call i64 @llvm.objectsize.i64.p0(ptr %10, i1 false, i1 true, i1 true)
  %12 = call ptr @__memcpy_chk(ptr noundef %7, ptr noundef %8, i64 noundef %9, i64 noundef %11) #16
  ret ptr %12
}

; Function Attrs: null_pointer_is_valid sspstrong uwtable
define void @add_conversation_table_data_extended(ptr noundef %0, ptr noundef %1, ptr noundef %2, i32 noundef %3, i32 noundef %4, i32 noundef %5, i32 noundef %6, i32 noundef %7, ptr noundef %8, ptr noundef %9, ptr noundef %10, i32 noundef %11, i32 noundef %12, ptr noundef %13) #1 {
  %15 = alloca ptr, align 8
  %16 = alloca ptr, align 8
  %17 = alloca ptr, align 8
  %18 = alloca i32, align 4
  %19 = alloca i32, align 4
  %20 = alloca i32, align 4
  %21 = alloca i32, align 4
  %22 = alloca i32, align 4
  %23 = alloca ptr, align 8
  %24 = alloca ptr, align 8
  %25 = alloca ptr, align 8
  %26 = alloca i32, align 4
  %27 = alloca i32, align 4
  %28 = alloca ptr, align 8
  %29 = alloca ptr, align 8
  %30 = alloca ptr, align 8
  %31 = alloca %struct._conversation_extension_tcp_t, align 8
  store ptr %0, ptr %15, align 8
  store ptr %1, ptr %16, align 8
  store ptr %2, ptr %17, align 8
  store i32 %3, ptr %18, align 4
  store i32 %4, ptr %19, align 4
  store i32 %5, ptr %20, align 4
  store i32 %6, ptr %21, align 4
  store i32 %7, ptr %22, align 4
  store ptr %8, ptr %23, align 8
  store ptr %9, ptr %24, align 8
  store ptr %10, ptr %25, align 8
  store i32 %11, ptr %26, align 4
  store i32 %12, ptr %27, align 4
  store ptr %13, ptr %28, align 8
  call void @llvm.lifetime.start.p0(i64 8, ptr %29) #16
  %32 = load ptr, ptr %15, align 8
  %33 = load ptr, ptr %16, align 8
  %34 = load ptr, ptr %17, align 8
  %35 = load i32, ptr %18, align 4
  %36 = load i32, ptr %19, align 4
  %37 = load i32, ptr %20, align 4
  %38 = load i32, ptr %21, align 4
  %39 = load i32, ptr %22, align 4
  %40 = load ptr, ptr %23, align 8
  %41 = load ptr, ptr %24, align 8
  %42 = load ptr, ptr %25, align 8
  %43 = load i32, ptr %26, align 4
  %44 = call ptr @add_conversation_table_data_with_conv_id(ptr noundef %32, ptr noundef %33, ptr noundef %34, i32 noundef %35, i32 noundef %36, i32 noundef %37, i32 noundef %38, i32 noundef %39, ptr noundef %40, ptr noundef %41, ptr noundef %42, i32 noundef %43)
  store ptr %44, ptr %29, align 8
  call void @llvm.lifetime.start.p0(i64 8, ptr %30) #16
  %45 = load i32, ptr %27, align 4
  %46 = load ptr, ptr %16, align 8
  %47 = load ptr, ptr %17, align 8
  %48 = load i32, ptr %26, align 4
  %49 = load i32, ptr %18, align 4
  %50 = load i32, ptr %19, align 4
  %51 = call ptr @find_conversation(i32 noundef %45, ptr noundef %46, ptr noundef %47, i32 noundef %48, i32 noundef %49, i32 noundef %50, i32 noundef 0)
  store ptr %51, ptr %30, align 8
  call void @llvm.lifetime.start.p0(i64 8, ptr %31) #16
  %52 = load ptr, ptr %30, align 8
  %53 = icmp ne ptr %52, null
  br i1 %53, label %54, label %60

54:                                               ; preds = %14
  %55 = load ptr, ptr %28, align 8
  %56 = load ptr, ptr %30, align 8
  %57 = call i32 %55(ptr noundef %56)
  %58 = sext i32 %57 to i64
  %59 = getelementptr inbounds nuw %struct._conversation_extension_tcp_t, ptr %31, i32 0, i32 0
  store i64 %58, ptr %59, align 8
  br label %62

60:                                               ; preds = %14
  %61 = getelementptr inbounds nuw %struct._conversation_extension_tcp_t, ptr %31, i32 0, i32 0
  store i64 0, ptr %61, align 8
  br label %62

62:                                               ; preds = %60, %54
  %63 = load ptr, ptr %29, align 8
  %64 = getelementptr inbounds nuw %struct._conversation_item_t, ptr %63, i32 0, i32 19
  %65 = call ptr @memcpy.inline(ptr noundef %64, ptr noundef %31, i64 noundef 8) #16
  call void @llvm.lifetime.end.p0(i64 8, ptr %31) #16
  call void @llvm.lifetime.end.p0(i64 8, ptr %30) #16
  call void @llvm.lifetime.end.p0(i64 8, ptr %29) #16
  ret void
}