; Function Attrs: null_pointer_is_valid sspstrong uwtable
define void @add_conversation_table_data_extended(ptr noundef captures(none) %0, ptr noundef %1, ptr noundef %2, i32 noundef %3, i32 noundef %4, i32 noundef %5, i32 noundef %6, i32 noundef %7, ptr noundef %8, ptr noundef readonly captures(none) %9, ptr noundef %10, i32 noundef %11, i32 noundef %12, ptr noundef readonly captures(none) %13) local_unnamed_addr #1 {
  %15 = tail call ptr @add_conversation_table_data_with_conv_id(ptr noundef %0, ptr noundef %1, ptr noundef %2, i32 noundef %3, i32 noundef %4, i32 noundef %5, i32 noundef %6, i32 noundef %7, ptr noundef %8, ptr noundef %9, ptr noundef %10, i32 noundef %11)
  %16 = tail call ptr @find_conversation(i32 noundef %12, ptr noundef %1, ptr noundef %2, i32 noundef %11, i32 noundef %3, i32 noundef %4, i32 noundef 0)
  %.not = icmp eq ptr %16, null
  br i1 %.not, label %20, label %17

17:                                               ; preds = %14
  %18 = tail call i32 %13(ptr noundef nonnull %16)
  %19 = sext i32 %18 to i64
  br label %20

20:                                               ; preds = %14, %17
  %storemerge = phi i64 [ %19, %17 ], [ 0, %14 ]
  %21 = getelementptr inbounds nuw i8, ptr %15, i64 192
  store i64 %storemerge, ptr %21, align 1
  ret void
}